; Function Attrs: nounwind sspstrong uwtable
define dso_local zeroext i1 @bdrv_supports_persistent_dirty_bitmap(ptr noundef %bs) local_unnamed_addr #0 {
entry:
  %drv = getelementptr inbounds nuw i8, ptr %bs, i64 16
  %0 = load ptr, ptr %drv, align 8
  %tobool.not = icmp eq ptr %0, null
  br i1 %tobool.not, label %return, label %land.lhs.true

land.lhs.true:                                    ; preds = %entry
  %bdrv_supports_persistent_dirty_bitmap = getelementptr inbounds nuw i8, ptr %0, i64 832
  %1 = load ptr, ptr %bdrv_supports_persistent_dirty_bitmap, align 8
  %tobool2.not = icmp eq ptr %1, null
  br i1 %tobool2.not, label %return, label %if.then

if.then:                                          ; preds = %land.lhs.true
  %call = tail call zeroext i1 %1(ptr noundef nonnull %bs) #14
  br label %return

return:                                           ; preds = %entry, %land.lhs.true, %if.then
  %retval.0 = phi i1 [ %call, %if.then ], [ false, %land.lhs.true ], [ false, %entry ]
  ret i1 %retval.0
}